Certificate:
    Data:
        Version: 3 (0x2)
        Serial Number: 23 (0x17)
        Signature Algorithm: sha1WithRSAEncryption
        Issuer: C=US, O=Apple Inc., OU=Apple Certification Authority, CN=Apple Root CA
        Validity
            Not Before: Apr 12 17:43:28 2007 GMT
            Not After : Apr 12 17:43:28 2022 GMT
        Subject: C=US, O=Apple Inc., OU=Apple Certification Authority, CN=Apple iPhone Certification Authority
        Subject Public Key Info:
            Public Key Algorithm: rsaEncryption
            RSA Public Key: (2048 bit)
                Modulus (2048 bit):
                    00:a3:1e:be:f0:47:c0:b4:9e:10:5b:46:a4:b8:21:
                    b8:4f:86:21:70:28:45:60:5c:1c:c3:c8:0a:64:63:
                    88:fb:fc:69:ee:f8:54:fc:e9:5b:b7:06:4e:04:2f:
                    c3:6b:33:af:44:4c:ea:4b:80:09:b4:87:f6:5b:b4:
                    fd:64:dd:b3:72:e0:13:b3:fd:17:d9:bc:e7:a8:ed:
                    c2:8c:61:c2:2a:f9:ec:ce:a5:5e:d6:69:eb:64:0b:
                    8d:08:8f:b8:a0:50:46:09:dc:19:e4:e5:b0:94:6d:
                    bb:f7:99:98:c4:e8:9b:41:4e:d4:f1:65:e3:1b:52:
                    7a:dc:e8:03:d9:6e:1d:da:10:55:86:a4:29:58:49:
                    0c:ea:47:d7:15:34:33:f6:c0:a0:44:4a:70:be:2c:
                    b5:2a:30:37:8c:2e:15:eb:d1:e4:6c:97:38:55:56:
                    b1:35:2b:58:ea:44:a3:26:85:ee:c8:66:4a:e4:cf:
                    89:f0:3d:63:ad:29:de:ad:ba:5a:b3:dc:a5:a3:9a:
                    a7:09:4e:80:16:35:65:a4:85:0d:63:7b:3e:63:8a:
                    da:7d:4a:46:ec:a3:39:18:34:b9:c6:28:65:18:bc:
                    13:60:9c:7f:57:ac:14:c9:89:ed:a1:b6:87:68:52:
                    b6:84:4e:b8:c8:83:ec:f9:9e:19:ab:b3:c1:0b:86:
                    c7:9f
                Exponent: 65537 (0x10001)
        X509v3 extensions:
            X509v3 Key Usage: critical
                Digital Signature, Certificate Sign, CRL Sign
            X509v3 Basic Constraints: critical
                CA:TRUE
            X509v3 Subject Key Identifier: 
                E7:34:2A:2E:22:DE:39:60:6B:B4:94:CE:77:83:61:2F:31:A0:7C:35
            X509v3 Authority Key Identifier: 
                keyid:2B:D0:69:47:94:76:09:FE:F4:6B:8D:2E:40:A6:F7:47:4D:7F:08:5E

            X509v3 CRL Distribution Points: 
                URI:http://www.apple.com/appleca/root.crl

    Signature Algorithm: sha1WithRSAEncryption
        1d:d1:d5:7b:dd:74:4e:d7:17:fc:82:2d:0c:99:9b:5e:42:72:
        f2:69:dc:d5:6b:5e:0d:0c:6b:4b:3e:7b:14:25:de:b3:94:e8:
        a0:fa:0f:80:89:f2:17:3d:00:02:a2:91:91:be:74:57:dc:af:
        9a:9f:a1:0a:7d:30:be:00:2a:cc:21:59:eb:fd:49:ac:6e:75:
        19:e8:9a:7a:03:d1:86:f6:e7:f6:b0:0e:4b:49:fa:a3:b7:41:
        ba:d7:d1:e3:56:a1:7d:83:ab:97:ae:f8:51:4a:26:c1:85:42:
        13:26:8d:03:54:66:10:5e:60:84:05:12:31:2b:6b:54:c0:a0:
        c8:41:bc:54:1e:e7:54:ad:13:00:d2:4a:c7:bb:c1:8a:af:81:
        08:8e:f0:46:0a:bf:27:a6:be:dc:cf:39:3a:80:70:19:23:32:
        a3:6b:66:5d:9e:4d:a8:47:49:b2:7b:45:b5:51:33:a7:74:67:
        09:4e:b6:6c:6f:48:f7:2c:b9:33:05:44:6b:45:be:74:4b:6f:
        b2:86:91:b4:3e:25:28:25:9e:b3:c2:51:86:fc:4f:e5:af:3b:
        aa:bb:44:2c:01:49:e2:74:b3:34:fa:44:ef:14:c2:11:f2:2d:
        19:1a:51:89:d3:08:4a:41:6c:58:56:de:9b:3a:e1:05:57:e5:
        62:cf:d2:0f
-----BEGIN CERTIFICATE-----
MIID8zCCAtugAwIBAgIBFzANBgkqhkiG9w0BAQUFADBiMQswCQYDVQQGEwJVUzET
MBEGA1UEChMKQXBwbGUgSW5jLjEmMCQGA1UECxMdQXBwbGUgQ2VydGlmaWNhdGlv
biBBdXRob3JpdHkxFjAUBgNVBAMTDUFwcGxlIFJvb3QgQ0EwHhcNMDcwNDEyMTc0
MzI4WhcNMjIwNDEyMTc0MzI4WjB5MQswCQYDVQQGEwJVUzETMBEGA1UEChMKQXBw
bGUgSW5jLjEmMCQGA1UECxMdQXBwbGUgQ2VydGlmaWNhdGlvbiBBdXRob3JpdHkx
LTArBgNVBAMTJEFwcGxlIGlQaG9uZSBDZXJ0aWZpY2F0aW9uIEF1dGhvcml0eTCC
ASIwDQYJKoZIhvcNAQEBBQADggEPADCCAQoCggEBAKMevvBHwLSeEFtGpLghuE+G
IXAoRWBcHMPICmRjiPv8ae74VPzpW7cGTgQvw2szr0RM6kuACbSH9lu0/WTds3Lg
E7P9F9m856jtwoxhwir57M6lXtZp62QLjQiPuKBQRgncGeTlsJRtu/eZmMTom0FO
1PFl4xtSetzoA9luHdoQVYakKVhJDOpH1xU0M/bAoERKcL4stSowN4wuFevR5GyX
OFVWsTUrWOpEoyaF7shmSuTPifA9Y60p3q26WrPcpaOapwlOgBY1ZaSFDWN7PmOK
2n1KRuyjORg0ucYoZRi8E2Ccf1esFMmJ7aG2h2hStoROuMiD7PmeGauzwQuGx58C
AwEAAaOBnDCBmTAOBgNVHQ8BAf8EBAMCAYYwDwYDVR0TAQH/BAUwAwEB/zAdBgNV
HQ4EFgQU5zQqLiLeOWBrtJTOd4NhLzGgfDUwHwYDVR0jBBgwFoAUK9BpR5R2Cf70
a40uQKb3R01/CF4wNgYDVR0fBC8wLTAroCmgJ4YlaHR0cDovL3d3dy5hcHBsZS5j
b20vYXBwbGVjYS9yb290LmNybDANBgkqhkiG9w0BAQUFAAOCAQEAHdHVe910TtcX
/IItDJmbXkJy8mnc1WteDQxrSz57FCXes5TooPoPgInyFz0AAqKRkb50V9yvmp+h
Cn0wvgAqzCFZ6/1JrG51GeiaegPRhvbn9rAOS0n6o7dButfR41ahfYOrl674UUom
wYVCEyaNA1RmEF5ghAUSMStrVMCgyEG8VB7nVK0TANJKx7vBiq+BCI7wRgq/J6a+
3M85OoBwGSMyo2tmXZ5NqEdJsntFtVEzp3RnCU62bG9I9yy5MwVEa0W+dEtvsoaR
tD4lKCWes8JRhvxP5a87qrtELAFJ4nSzNPpE7xTCEfItGRpRidMISkFsWFbemzrh
BVflYs/SDw==
-----END CERTIFICATE-----
